target datalayout = "e-m:e-p270:32:32-p271:32:32-p272:64:64-i64:64-i128:128-f80:128-n8:16:32:64-S128"
target triple = "x86_64-pc-linux-gnu"

%"class.icu_77::UObject" = type { ptr }
%"class.icu_77::NumberFormat" = type <{ %"class.icu_77::Format", i8, [3 x i8], i32, i32, i32, i32, i8, i8, [4 x i16], [2 x i8], i32, [4 x i8] }>
%"class.icu_77::Format" = type { %"class.icu_77::UObject", ptr, ptr }

; Function Attrs: mustprogress uwtable
define void @_ZN6icu_7712NumberFormatC2Ev(ptr noundef nonnull align 8 dereferenceable(60) %0) unnamed_addr #1 align 2 {
  %2 = alloca ptr, align 8
  store ptr %0, ptr %2, align 8, !tbaa !40
  %3 = load ptr, ptr %2, align 8
  call void @_ZN6icu_776FormatC2Ev(ptr noundef nonnull align 8 dereferenceable(24) %3)
  store ptr getelementptr inbounds inrange(-16, 296) ({ [39 x ptr] }, ptr @_ZTVN6icu_7712NumberFormatE, i32 0, i32 0, i32 2), ptr %3, align 8, !tbaa !30
  %4 = getelementptr inbounds nuw %"class.icu_77::NumberFormat", ptr %3, i32 0, i32 1
  store i8 1, ptr %4, align 8, !tbaa !42
  %5 = getelementptr inbounds nuw %"class.icu_77::NumberFormat", ptr %3, i32 0, i32 3
  store i32 2000000000, ptr %5, align 4, !tbaa !47
  %6 = getelementptr inbounds nuw %"class.icu_77::NumberFormat", ptr %3, i32 0, i32 4
  store i32 1, ptr %6, align 8, !tbaa !48
  %7 = getelementptr inbounds nuw %"class.icu_77::NumberFormat", ptr %3, i32 0, i32 5
  store i32 3, ptr %7, align 4, !tbaa !49
  %8 = getelementptr inbounds nuw %"class.icu_77::NumberFormat", ptr %3, i32 0, i32 6
  store i32 0, ptr %8, align 8, !tbaa !50
  %9 = getelementptr inbounds nuw %"class.icu_77::NumberFormat", ptr %3, i32 0, i32 7
  store i8 0, ptr %9, align 4, !tbaa !51
  %10 = getelementptr inbounds nuw %"class.icu_77::NumberFormat", ptr %3, i32 0, i32 8
  store i8 0, ptr %10, align 1, !tbaa !52
  %11 = getelementptr inbounds nuw %"class.icu_77::NumberFormat", ptr %3, i32 0, i32 11
  store i32 256, ptr %11, align 8, !tbaa !53
  %12 = getelementptr inbounds nuw %"class.icu_77::NumberFormat", ptr %3, i32 0, i32 9
  %13 = getelementptr inbounds [4 x i16], ptr %12, i64 0, i64 0
  store i16 0, ptr %13, align 2, !tbaa !54
  ret void
}