; Function Attrs: mustprogress uwtable
define void @_ZN6icu_7712NumberFormatC2Ev(ptr noundef nonnull align 8 dereferenceable(60) %0) unnamed_addr #1 align 2 {
  tail call void @_ZN6icu_776FormatC2Ev(ptr noundef nonnull align 8 dereferenceable(24) %0)
  store ptr getelementptr inbounds nuw inrange(-16, 296) (i8, ptr @_ZTVN6icu_7712NumberFormatE, i64 16), ptr %0, align 8, !tbaa !15
  %2 = getelementptr inbounds nuw i8, ptr %0, i64 24
  store i8 1, ptr %2, align 8, !tbaa !24
  %3 = getelementptr inbounds nuw i8, ptr %0, i64 28
  store i32 2000000000, ptr %3, align 4, !tbaa !29
  %4 = getelementptr inbounds nuw i8, ptr %0, i64 32
  store i32 1, ptr %4, align 8, !tbaa !30
  %5 = getelementptr inbounds nuw i8, ptr %0, i64 36
  store i32 3, ptr %5, align 4, !tbaa !31
  %6 = getelementptr inbounds nuw i8, ptr %0, i64 40
  store i32 0, ptr %6, align 8, !tbaa !32
  %7 = getelementptr inbounds nuw i8, ptr %0, i64 44
  store i8 0, ptr %7, align 4, !tbaa !33
  %8 = getelementptr inbounds nuw i8, ptr %0, i64 45
  store i8 0, ptr %8, align 1, !tbaa !34
  %9 = getelementptr inbounds nuw i8, ptr %0, i64 56
  store i32 256, ptr %9, align 8, !tbaa !35
  %10 = getelementptr inbounds nuw i8, ptr %0, i64 46
  store i16 0, ptr %10, align 2, !tbaa !36
  ret void
}